(lp0
S'poi'
p1
aS'salary'
p2
aS'bonus'
p3
aS'deferral_payments'
p4
aS'deferred_income'
p5
aS'director_fees'
p6
aS'expenses'
p7
aS'loan_advances'
p8
aS'long_term_incentive'
p9
aS'other'
p10
aS'total_payments'
p11
aS'restricted_stock'
p12
aS'restricted_stock_deferred'
p13
aS'exercised_stock_options'
p14
aS'total_stock_value'
p15
aS'to_messages'
p16
aS'from_messages'
p17
aS'shared_receipt_with_poi'
p18
aS'from_poi_to_this_person'
p19
aS'from_this_person_to_poi'
p20
aS'total_finance'
p21
aS'p_poi_to_msg'
p22
aS'p_poi_from_msg'
p23
a.